target datalayout = "e-m:e-p270:32:32-p271:32:32-p272:64:64-i64:64-i128:128-f80:128-n8:16:32:64-S128"
target triple = "x86_64-pc-linux-gnu"

%struct.Odc_Man_t_ = type { i32, i32, i32, i32, i32, i32, ptr, ptr, ptr, ptr, i32, i32, i32, ptr, i16, i16, ptr, i32, ptr, i32, i32, ptr, ptr, ptr, i32, i32, i32, i32, i32, i32, i64, i64, i64, i64, i64, i64, i64, i64 }
%struct.Vec_Ptr_t_ = type { i32, i32, ptr }

; Function Attrs: inlinehint nounwind uwtable
define internal i32 @Extra_WordCountOnes(i32 noundef %0) #5 {
  %2 = alloca i32, align 4
  store i32 %0, ptr %2, align 4, !tbaa !3
  %3 = load i32, ptr %2, align 4, !tbaa !3
  %4 = and i32 %3, 1431655765
  %5 = load i32, ptr %2, align 4, !tbaa !3
  %6 = lshr i32 %5, 1
  %7 = and i32 %6, 1431655765
  %8 = add i32 %4, %7
  store i32 %8, ptr %2, align 4, !tbaa !3
  %9 = load i32, ptr %2, align 4, !tbaa !3
  %10 = and i32 %9, 858993459
  %11 = load i32, ptr %2, align 4, !tbaa !3
  %12 = lshr i32 %11, 2
  %13 = and i32 %12, 858993459
  %14 = add i32 %10, %13
  store i32 %14, ptr %2, align 4, !tbaa !3
  %15 = load i32, ptr %2, align 4, !tbaa !3
  %16 = and i32 %15, 252645135
  %17 = load i32, ptr %2, align 4, !tbaa !3
  %18 = lshr i32 %17, 4
  %19 = and i32 %18, 252645135
  %20 = add i32 %16, %19
  store i32 %20, ptr %2, align 4, !tbaa !3
  %21 = load i32, ptr %2, align 4, !tbaa !3
  %22 = and i32 %21, 16711935
  %23 = load i32, ptr %2, align 4, !tbaa !3
  %24 = lshr i32 %23, 8
  %25 = and i32 %24, 16711935
  %26 = add i32 %22, %25
  store i32 %26, ptr %2, align 4, !tbaa !3
  %27 = load i32, ptr %2, align 4, !tbaa !3
  %28 = and i32 %27, 65535
  %29 = load i32, ptr %2, align 4, !tbaa !3
  %30 = lshr i32 %29, 16
  %31 = add i32 %28, %30
  ret i32 %31
}

; Function Attrs: inlinehint nounwind uwtable
define internal i32 @Extra_TruthWordNum(i32 noundef %0) #5 {
  %2 = alloca i32, align 4
  store i32 %0, ptr %2, align 4, !tbaa !3
  %3 = load i32, ptr %2, align 4, !tbaa !3
  %4 = icmp sle i32 %3, 5
  br i1 %4, label %5, label %6

5:                                                ; preds = %1
  br label %10

6:                                                ; preds = %1
  %7 = load i32, ptr %2, align 4, !tbaa !3
  %8 = sub nsw i32 %7, 5
  %9 = shl i32 1, %8
  br label %10

10:                                               ; preds = %6, %5
  %11 = phi i32 [ 1, %5 ], [ %9, %6 ]
  ret i32 %11
}

; Function Attrs: inlinehint nounwind uwtable
define internal ptr @Vec_PtrEntry(ptr noundef %0, i32 noundef %1) #5 {
  %3 = alloca ptr, align 8
  %4 = alloca i32, align 4
  store ptr %0, ptr %3, align 8, !tbaa !47
  store i32 %1, ptr %4, align 4, !tbaa !3
  %5 = load ptr, ptr %3, align 8, !tbaa !47
  %6 = getelementptr inbounds nuw %struct.Vec_Ptr_t_, ptr %5, i32 0, i32 2
  %7 = load ptr, ptr %6, align 8, !tbaa !51
  %8 = load i32, ptr %4, align 4, !tbaa !3
  %9 = sext i32 %8 to i64
  %10 = getelementptr inbounds ptr, ptr %7, i64 %9
  %11 = load ptr, ptr %10, align 8, !tbaa !57
  ret ptr %11
}

; Function Attrs: inlinehint nounwind uwtable
define internal i32 @Extra_TruthCountOnes(ptr noundef %0, i32 noundef %1) #5 {
  %3 = alloca ptr, align 8
  %4 = alloca i32, align 4
  %5 = alloca i32, align 4
  %6 = alloca i32, align 4
  store ptr %0, ptr %3, align 8, !tbaa !42
  store i32 %1, ptr %4, align 4, !tbaa !3
  call void @llvm.lifetime.start.p0(i64 4, ptr %5) #10
  call void @llvm.lifetime.start.p0(i64 4, ptr %6) #10
  store i32 0, ptr %6, align 4, !tbaa !3
  %7 = load i32, ptr %4, align 4, !tbaa !3
  %8 = call i32 @Extra_TruthWordNum(i32 noundef %7)
  %9 = sub nsw i32 %8, 1
  store i32 %9, ptr %5, align 4, !tbaa !3
  br label %10

10:                                               ; preds = %22, %2
  %11 = load i32, ptr %5, align 4, !tbaa !3
  %12 = icmp sge i32 %11, 0
  br i1 %12, label %13, label %25

13:                                               ; preds = %10
  %14 = load ptr, ptr %3, align 8, !tbaa !42
  %15 = load i32, ptr %5, align 4, !tbaa !3
  %16 = sext i32 %15 to i64
  %17 = getelementptr inbounds i32, ptr %14, i64 %16
  %18 = load i32, ptr %17, align 4, !tbaa !3
  %19 = call i32 @Extra_WordCountOnes(i32 noundef %18)
  %20 = load i32, ptr %6, align 4, !tbaa !3
  %21 = add nsw i32 %20, %19
  store i32 %21, ptr %6, align 4, !tbaa !3
  br label %22

22:                                               ; preds = %13
  %23 = load i32, ptr %5, align 4, !tbaa !3
  %24 = add nsw i32 %23, -1
  store i32 %24, ptr %5, align 4, !tbaa !3
  br label %10, !llvm.loop !138

25:                                               ; preds = %10
  %26 = load i32, ptr %6, align 4, !tbaa !3
  call void @llvm.lifetime.end.p0(i64 4, ptr %6) #10
  call void @llvm.lifetime.end.p0(i64 4, ptr %5) #10
  ret i32 %26
}

; Function Attrs: inlinehint nounwind uwtable
define internal void @Abc_InfoNot(ptr noundef %0, i32 noundef %1) #5 {
  %3 = alloca ptr, align 8
  %4 = alloca i32, align 4
  %5 = alloca i32, align 4
  store ptr %0, ptr %3, align 8, !tbaa !42
  store i32 %1, ptr %4, align 4, !tbaa !3
  call void @llvm.lifetime.start.p0(i64 4, ptr %5) #10
  %6 = load i32, ptr %4, align 4, !tbaa !3
  %7 = sub nsw i32 %6, 1
  store i32 %7, ptr %5, align 4, !tbaa !3
  br label %8

8:                                                ; preds = %22, %2
  %9 = load i32, ptr %5, align 4, !tbaa !3
  %10 = icmp sge i32 %9, 0
  br i1 %10, label %11, label %25

11:                                               ; preds = %8
  %12 = load ptr, ptr %3, align 8, !tbaa !42
  %13 = load i32, ptr %5, align 4, !tbaa !3
  %14 = sext i32 %13 to i64
  %15 = getelementptr inbounds i32, ptr %12, i64 %14
  %16 = load i32, ptr %15, align 4, !tbaa !3
  %17 = xor i32 %16, -1
  %18 = load ptr, ptr %3, align 8, !tbaa !42
  %19 = load i32, ptr %5, align 4, !tbaa !3
  %20 = sext i32 %19 to i64
  %21 = getelementptr inbounds i32, ptr %18, i64 %20
  store i32 %17, ptr %21, align 4, !tbaa !3
  br label %22

22:                                               ; preds = %11
  %23 = load i32, ptr %5, align 4, !tbaa !3
  %24 = add nsw i32 %23, -1
  store i32 %24, ptr %5, align 4, !tbaa !3
  br label %8, !llvm.loop !137

25:                                               ; preds = %8
  call void @llvm.lifetime.end.p0(i64 4, ptr %5) #10
  ret void
}

; Function Attrs: inlinehint nounwind uwtable
define internal i32 @Odc_IsComplement(i16 noundef zeroext %0) #5 {
  %2 = alloca i16, align 2
  store i16 %0, ptr %2, align 2, !tbaa !59
  %3 = load i16, ptr %2, align 2, !tbaa !59
  %4 = zext i16 %3 to i32
  %5 = and i32 %4, 1
  ret i32 %5
}

; Function Attrs: inlinehint nounwind uwtable
define internal void @Abc_InfoCopy(ptr noundef %0, ptr noundef %1, i32 noundef %2) #5 {
  %4 = alloca ptr, align 8
  %5 = alloca ptr, align 8
  %6 = alloca i32, align 4
  %7 = alloca i32, align 4
  store ptr %0, ptr %4, align 8, !tbaa !42
  store ptr %1, ptr %5, align 8, !tbaa !42
  store i32 %2, ptr %6, align 4, !tbaa !3
  call void @llvm.lifetime.start.p0(i64 4, ptr %7) #10
  %8 = load i32, ptr %6, align 4, !tbaa !3
  %9 = sub nsw i32 %8, 1
  store i32 %9, ptr %7, align 4, !tbaa !3
  br label %10

10:                                               ; preds = %23, %3
  %11 = load i32, ptr %7, align 4, !tbaa !3
  %12 = icmp sge i32 %11, 0
  br i1 %12, label %13, label %26

13:                                               ; preds = %10
  %14 = load ptr, ptr %5, align 8, !tbaa !42
  %15 = load i32, ptr %7, align 4, !tbaa !3
  %16 = sext i32 %15 to i64
  %17 = getelementptr inbounds i32, ptr %14, i64 %16
  %18 = load i32, ptr %17, align 4, !tbaa !3
  %19 = load ptr, ptr %4, align 8, !tbaa !42
  %20 = load i32, ptr %7, align 4, !tbaa !3
  %21 = sext i32 %20 to i64
  %22 = getelementptr inbounds i32, ptr %19, i64 %21
  store i32 %18, ptr %22, align 4, !tbaa !3
  br label %23

23:                                               ; preds = %13
  %24 = load i32, ptr %7, align 4, !tbaa !3
  %25 = add nsw i32 %24, -1
  store i32 %25, ptr %7, align 4, !tbaa !3
  br label %10, !llvm.loop !129

26:                                               ; preds = %10
  call void @llvm.lifetime.end.p0(i64 4, ptr %7) #10
  ret void
}

; Function Attrs: inlinehint nounwind uwtable
define internal ptr @Odc_ObjTruth(ptr noundef %0, i16 noundef zeroext %1) #5 {
  %3 = alloca ptr, align 8
  %4 = alloca i16, align 2
  store ptr %0, ptr %3, align 8, !tbaa !7
  store i16 %1, ptr %4, align 2, !tbaa !59
  %5 = load ptr, ptr %3, align 8, !tbaa !7
  %6 = getelementptr inbounds nuw %struct.Odc_Man_t_, ptr %5, i32 0, i32 21
  %7 = load ptr, ptr %6, align 8, !tbaa !40
  %8 = load i16, ptr %4, align 2, !tbaa !59
  %9 = zext i16 %8 to i32
  %10 = ashr i32 %9, 1
  %11 = call ptr @Vec_PtrEntry(ptr noundef %7, i32 noundef %10)
  ret ptr %11
}

; Function Attrs: inlinehint nounwind uwtable
define internal zeroext i16 @Odc_Regular(i16 noundef zeroext %0) #5 {
  %2 = alloca i16, align 2
  store i16 %0, ptr %2, align 2, !tbaa !59
  %3 = load i16, ptr %2, align 2, !tbaa !59
  %4 = zext i16 %3 to i32
  %5 = and i32 %4, -2
  %6 = trunc i32 %5 to i16
  ret i16 %6
}

; Function Attrs: inlinehint nounwind uwtable
define internal void @Odc_ManIncrementTravId(ptr noundef %0) #5 {
  %2 = alloca ptr, align 8
  store ptr %0, ptr %2, align 8, !tbaa !7
  %3 = load ptr, ptr %2, align 8, !tbaa !7
  %4 = getelementptr inbounds nuw %struct.Odc_Man_t_, ptr %3, i32 0, i32 15
  %5 = load i16, ptr %4, align 2, !tbaa !124
  %6 = add i16 %5, 1
  store i16 %6, ptr %4, align 2, !tbaa !124
  ret void
}

; Function Attrs: nounwind uwtable
define i32 @Abc_NtkDontCareSimulate(ptr noundef %0, ptr noundef %1) #0 {
  %3 = alloca ptr, align 8
  %4 = alloca ptr, align 8
  store ptr %0, ptr %3, align 8, !tbaa !7
  store ptr %1, ptr %4, align 8, !tbaa !42
  %5 = load ptr, ptr %3, align 8, !tbaa !7
  call void @Odc_ManIncrementTravId(ptr noundef %5)
  %6 = load ptr, ptr %3, align 8, !tbaa !7
  %7 = load ptr, ptr %3, align 8, !tbaa !7
  %8 = getelementptr inbounds nuw %struct.Odc_Man_t_, ptr %7, i32 0, i32 14
  %9 = load i16, ptr %8, align 8, !tbaa !46
  %10 = call zeroext i16 @Odc_Regular(i16 noundef zeroext %9)
  call void @Abc_NtkDontCareSimulate_rec(ptr noundef %6, i16 noundef zeroext %10)
  %11 = load ptr, ptr %4, align 8, !tbaa !42
  %12 = load ptr, ptr %3, align 8, !tbaa !7
  %13 = load ptr, ptr %3, align 8, !tbaa !7
  %14 = getelementptr inbounds nuw %struct.Odc_Man_t_, ptr %13, i32 0, i32 14
  %15 = load i16, ptr %14, align 8, !tbaa !46
  %16 = call zeroext i16 @Odc_Regular(i16 noundef zeroext %15)
  %17 = call ptr @Odc_ObjTruth(ptr noundef %12, i16 noundef zeroext %16)
  %18 = load ptr, ptr %3, align 8, !tbaa !7
  %19 = getelementptr inbounds nuw %struct.Odc_Man_t_, ptr %18, i32 0, i32 20
  %20 = load i32, ptr %19, align 4, !tbaa !38
  call void @Abc_InfoCopy(ptr noundef %11, ptr noundef %17, i32 noundef %20)
  %21 = load ptr, ptr %3, align 8, !tbaa !7
  %22 = getelementptr inbounds nuw %struct.Odc_Man_t_, ptr %21, i32 0, i32 14
  %23 = load i16, ptr %22, align 8, !tbaa !46
  %24 = call i32 @Odc_IsComplement(i16 noundef zeroext %23)
  %25 = icmp ne i32 %24, 0
  br i1 %25, label %26, label %31

26:                                               ; preds = %2
  %27 = load ptr, ptr %4, align 8, !tbaa !42
  %28 = load ptr, ptr %3, align 8, !tbaa !7
  %29 = getelementptr inbounds nuw %struct.Odc_Man_t_, ptr %28, i32 0, i32 20
  %30 = load i32, ptr %29, align 4, !tbaa !38
  call void @Abc_InfoNot(ptr noundef %27, i32 noundef %30)
  br label %31

31:                                               ; preds = %26, %2
  %32 = load ptr, ptr %4, align 8, !tbaa !42
  %33 = load ptr, ptr %3, align 8, !tbaa !7
  %34 = getelementptr inbounds nuw %struct.Odc_Man_t_, ptr %33, i32 0, i32 0
  %35 = load i32, ptr %34, align 8, !tbaa !10
  %36 = call i32 @Extra_TruthCountOnes(ptr noundef %32, i32 noundef %35)
  ret i32 %36
}