; Function Attrs: nofree nosync nounwind memory(readwrite, inaccessiblemem: none) uwtable
define i32 @Abc_NtkDontCareSimulate(ptr noundef %0, ptr noundef captures(none) %1) local_unnamed_addr #11 {
  %3 = getelementptr inbounds nuw i8, ptr %0, i64 82
  %4 = load i16, ptr %3, align 2, !tbaa !119
  %5 = add i16 %4, 1
  store i16 %5, ptr %3, align 2, !tbaa !119
  %6 = getelementptr inbounds nuw i8, ptr %0, i64 80
  %7 = load i16, ptr %6, align 8, !tbaa !53
  %8 = and i16 %7, -2
  tail call void @Abc_NtkDontCareSimulate_rec(ptr noundef %0, i16 noundef zeroext %8)
  %9 = load i16, ptr %6, align 8, !tbaa !53
  %10 = getelementptr i8, ptr %0, i64 120
  %.val = load ptr, ptr %10, align 8, !tbaa !46
  %11 = getelementptr i8, ptr %.val, i64 8
  %.val.val = load ptr, ptr %11, align 8, !tbaa !24
  %12 = lshr i16 %9, 1
  %13 = zext nneg i16 %12 to i64
  %14 = getelementptr inbounds nuw ptr, ptr %.val.val, i64 %13
  %15 = load ptr, ptr %14, align 8, !tbaa !44
  %16 = getelementptr inbounds nuw i8, ptr %0, i64 116
  %17 = load i32, ptr %16, align 4, !tbaa !42
  %18 = icmp sgt i32 %17, 0
  br i1 %18, label %.lr.ph.preheader.i, label %Abc_InfoCopy.exit

.lr.ph.preheader.i:                               ; preds = %2
  %19 = zext nneg i32 %17 to i64
  br label %.lr.ph.i

.lr.ph.i:                                         ; preds = %.lr.ph.i, %.lr.ph.preheader.i
  %indvars.iv.i = phi i64 [ %19, %.lr.ph.preheader.i ], [ %indvars.iv.next.i, %.lr.ph.i ]
  %indvars.iv.next.i = add nsw i64 %indvars.iv.i, -1
  %20 = getelementptr inbounds nuw i32, ptr %15, i64 %indvars.iv.next.i
  %21 = load i32, ptr %20, align 4, !tbaa !48
  %22 = getelementptr inbounds nuw i32, ptr %1, i64 %indvars.iv.next.i
  store i32 %21, ptr %22, align 4, !tbaa !48
  %23 = icmp samesign ugt i64 %indvars.iv.i, 1
  br i1 %23, label %.lr.ph.i, label %Abc_InfoCopy.exit, !llvm.loop !125

Abc_InfoCopy.exit:                                ; preds = %.lr.ph.i, %2
  %24 = and i16 %9, 1
  %.not = icmp eq i16 %24, 0
  br i1 %.not, label %Abc_InfoNot.exit, label %25

25:                                               ; preds = %Abc_InfoCopy.exit
  %26 = load i32, ptr %16, align 4, !tbaa !42
  %27 = icmp sgt i32 %26, 0
  br i1 %27, label %.lr.ph.preheader.i12, label %Abc_InfoNot.exit

.lr.ph.preheader.i12:                             ; preds = %25
  %28 = zext nneg i32 %26 to i64
  br label %.lr.ph.i13

.lr.ph.i13:                                       ; preds = %.lr.ph.i13, %.lr.ph.preheader.i12
  %indvars.iv.i14 = phi i64 [ %28, %.lr.ph.preheader.i12 ], [ %indvars.iv.next.i15, %.lr.ph.i13 ]
  %indvars.iv.next.i15 = add nsw i64 %indvars.iv.i14, -1
  %29 = getelementptr inbounds nuw i32, ptr %1, i64 %indvars.iv.next.i15
  %30 = load i32, ptr %29, align 4, !tbaa !48
  %31 = xor i32 %30, -1
  store i32 %31, ptr %29, align 4, !tbaa !48
  %32 = icmp samesign ugt i64 %indvars.iv.i14, 1
  br i1 %32, label %.lr.ph.i13, label %Abc_InfoNot.exit, !llvm.loop !135

Abc_InfoNot.exit:                                 ; preds = %.lr.ph.i13, %25, %Abc_InfoCopy.exit
  %33 = load i32, ptr %0, align 8, !tbaa !3
  %34 = icmp slt i32 %33, 6
  %35 = add nsw i32 %33, -5
  %36 = shl nuw i32 1, %35
  %spec.select.i = select i1 %34, i32 1, i32 %36
  %37 = icmp sgt i32 %spec.select.i, 0
  br i1 %37, label %select.unfold.preheader.i, label %Extra_TruthCountOnes.exit

select.unfold.preheader.i:                        ; preds = %Abc_InfoNot.exit
  %38 = zext nneg i32 %spec.select.i to i64
  br label %select.unfold.i

select.unfold.i:                                  ; preds = %select.unfold.i, %select.unfold.preheader.i
  %indvars.iv.i16 = phi i64 [ %38, %select.unfold.preheader.i ], [ %indvars.iv.next.i17, %select.unfold.i ]
  %.08.i = phi i32 [ 0, %select.unfold.preheader.i ], [ %60, %select.unfold.i ]
  %indvars.iv.next.i17 = add nsw i64 %indvars.iv.i16, -1
  %39 = getelementptr inbounds nuw i32, ptr %1, i64 %indvars.iv.next.i17
  %40 = load i32, ptr %39, align 4, !tbaa !48
  %41 = and i32 %40, 1431655765
  %42 = lshr i32 %40, 1
  %43 = and i32 %42, 1431655765
  %44 = add nuw i32 %43, %41
  %45 = and i32 %44, 858993459
  %46 = lshr i32 %44, 2
  %47 = and i32 %46, 858993459
  %48 = add nuw nsw i32 %47, %45
  %49 = and i32 %48, 117901063
  %50 = lshr i32 %48, 4
  %51 = and i32 %50, 117901063
  %52 = add nuw nsw i32 %51, %49
  %53 = and i32 %52, 983055
  %54 = lshr i32 %52, 8
  %55 = and i32 %54, 983055
  %56 = add nuw nsw i32 %55, %53
  %57 = and i32 %56, 31
  %58 = lshr i32 %56, 16
  %59 = add nuw nsw i32 %58, %.08.i
  %60 = add nuw nsw i32 %59, %57
  %61 = icmp samesign ugt i64 %indvars.iv.i16, 1
  br i1 %61, label %select.unfold.i, label %Extra_TruthCountOnes.exit, !llvm.loop !136

Extra_TruthCountOnes.exit:                        ; preds = %select.unfold.i, %Abc_InfoNot.exit
  %.0.lcssa.i = phi i32 [ 0, %Abc_InfoNot.exit ], [ %60, %select.unfold.i ]
  ret i32 %.0.lcssa.i
}